target datalayout = "e-m:e-p270:32:32-p271:32:32-p272:64:64-i64:64-i128:128-f80:128-n8:16:32:64-S128"
target triple = "x86_64-pc-linux-gnu"

%struct._packet_info = type { ptr, ptr, i32, i32, %struct.nstime_t, %struct.nstime_t, %struct.nstime_t, i8, ptr, ptr, ptr, ptr, %struct._address, %struct._address, %struct._address, %struct._address, %struct._address, %struct._address, i32, ptr, i8, [3 x i8], %struct.anon, i32, i32, i32, i32, ptr, i8, ptr, ptr, i16, i16, i32, i32, i16, i32, i32, ptr, ptr, ptr, i8, i8, i16, i16, i16, i32, i16, i16, ptr, ptr, ptr, ptr, ptr, i32, i32 }
%struct.nstime_t = type { i64, i32 }
%struct._address = type { i32, i32, ptr, ptr }
%struct.anon = type { i8, [3 x i8] }

@hf_mp4ves_start_code_prefix = internal global i32 0, align 4
@hf_mp4ves_vop_coding_type = internal global i32 0, align 4
@hf_mp4ves_data = internal global i32 0, align 4
@ett_mp4ves = internal global i32 0, align 4
@.str.97 = private unnamed_addr constant [8 x i8] c"MP4V-ES\00", align 1
@proto_mp4ves = internal global i32 0, align 4

; Function Attrs: null_pointer_is_valid sspstrong uwtable
define internal i32 @dissect_mp4ves(ptr noundef %0, ptr noundef %1, ptr noundef %2, ptr noundef %3) #0 {
  %5 = alloca i32, align 4
  %6 = alloca ptr, align 8
  %7 = alloca ptr, align 8
  %8 = alloca ptr, align 8
  %9 = alloca ptr, align 8
  %10 = alloca i32, align 4
  %11 = alloca ptr, align 8
  %12 = alloca ptr, align 8
  %13 = alloca i32, align 4
  %14 = alloca i32, align 4
  store ptr %0, ptr %6, align 8
  store ptr %1, ptr %7, align 8
  store ptr %2, ptr %8, align 8
  store ptr %3, ptr %9, align 8
  call void @llvm.lifetime.start.p0(i64 4, ptr %10) #6
  store i32 0, ptr %10, align 4
  call void @llvm.lifetime.start.p0(i64 8, ptr %11) #6
  call void @llvm.lifetime.start.p0(i64 8, ptr %12) #6
  call void @llvm.lifetime.start.p0(i64 4, ptr %13) #6
  %15 = load ptr, ptr %7, align 8
  %16 = getelementptr inbounds nuw %struct._packet_info, ptr %15, i32 0, i32 1
  %17 = load ptr, ptr %16, align 8
  call void @col_set_str(ptr noundef %17, i32 noundef 35, ptr noundef @.str.97)
  %18 = load ptr, ptr %8, align 8
  %19 = icmp ne ptr %18, null
  br i1 %19, label %20, label %87

20:                                               ; preds = %4
  %21 = load ptr, ptr %8, align 8
  %22 = load i32, ptr @proto_mp4ves, align 4
  %23 = load ptr, ptr %6, align 8
  %24 = call ptr @proto_tree_add_item(ptr noundef %21, i32 noundef %22, ptr noundef %23, i32 noundef 0, i32 noundef -1, i32 noundef 0)
  store ptr %24, ptr %11, align 8
  %25 = load ptr, ptr %11, align 8
  %26 = load i32, ptr @ett_mp4ves, align 4
  %27 = call ptr @proto_item_add_subtree(ptr noundef %25, i32 noundef %26)
  store ptr %27, ptr %12, align 8
  %28 = load ptr, ptr %6, align 8
  %29 = call i32 @tvb_reported_length(ptr noundef %28)
  %30 = icmp ult i32 %29, 4
  br i1 %30, label %31, label %40

31:                                               ; preds = %20
  %32 = load ptr, ptr %12, align 8
  %33 = load i32, ptr @hf_mp4ves_data, align 4
  %34 = load ptr, ptr %6, align 8
  %35 = load i32, ptr %10, align 4
  %36 = ashr i32 %35, 3
  %37 = call ptr @proto_tree_add_item(ptr noundef %32, i32 noundef %33, ptr noundef %34, i32 noundef %36, i32 noundef -1, i32 noundef 0)
  %38 = load ptr, ptr %6, align 8
  %39 = call i32 @tvb_captured_length(ptr noundef %38)
  store i32 %39, ptr %5, align 4
  store i32 1, ptr %14, align 4
  br label %90

40:                                               ; preds = %20
  %41 = load ptr, ptr %6, align 8
  %42 = load i32, ptr %10, align 4
  %43 = call i32 @tvb_get_bits32(ptr noundef %41, i32 noundef %42, i32 noundef 24, i32 noundef 0)
  store i32 %43, ptr %13, align 4
  %44 = load i32, ptr %13, align 4
  %45 = icmp ne i32 %44, 1
  br i1 %45, label %46, label %55

46:                                               ; preds = %40
  %47 = load ptr, ptr %12, align 8
  %48 = load i32, ptr @hf_mp4ves_data, align 4
  %49 = load ptr, ptr %6, align 8
  %50 = load i32, ptr %10, align 4
  %51 = ashr i32 %50, 3
  %52 = call ptr @proto_tree_add_item(ptr noundef %47, i32 noundef %48, ptr noundef %49, i32 noundef %51, i32 noundef -1, i32 noundef 0)
  %53 = load ptr, ptr %6, align 8
  %54 = call i32 @tvb_captured_length(ptr noundef %53)
  store i32 %54, ptr %5, align 4
  store i32 1, ptr %14, align 4
  br label %90

55:                                               ; preds = %40
  %56 = load ptr, ptr %6, align 8
  %57 = call zeroext i8 @tvb_get_bits8(ptr noundef %56, i32 noundef 24, i32 noundef 8)
  %58 = zext i8 %57 to i32
  store i32 %58, ptr %13, align 4
  %59 = load i32, ptr %10, align 4
  %60 = add i32 %59, 8
  store i32 %60, ptr %10, align 4
  %61 = load i32, ptr %13, align 4
  switch i32 %61, label %80 [
    i32 182, label %62
    i32 176, label %75
  ]

62:                                               ; preds = %55
  %63 = load ptr, ptr %12, align 8
  %64 = load i32, ptr @hf_mp4ves_start_code_prefix, align 4
  %65 = load ptr, ptr %6, align 8
  %66 = load i32, ptr %10, align 4
  %67 = call ptr @proto_tree_add_bits_item(ptr noundef %63, i32 noundef %64, ptr noundef %65, i32 noundef %66, i32 noundef 24, i32 noundef 0)
  %68 = load i32, ptr %10, align 4
  %69 = add i32 %68, 24
  store i32 %69, ptr %10, align 4
  %70 = load ptr, ptr %12, align 8
  %71 = load i32, ptr @hf_mp4ves_vop_coding_type, align 4
  %72 = load ptr, ptr %6, align 8
  %73 = load i32, ptr %10, align 4
  %74 = call ptr @proto_tree_add_bits_item(ptr noundef %70, i32 noundef %71, ptr noundef %72, i32 noundef %73, i32 noundef 2, i32 noundef 0)
  br label %86

75:                                               ; preds = %55
  %76 = load ptr, ptr %6, align 8
  %77 = load ptr, ptr %7, align 8
  %78 = load ptr, ptr %12, align 8
  %79 = call i32 @dissect_mp4ves_VisualObjectSequence(ptr noundef %76, ptr noundef %77, ptr noundef %78, i32 noundef 0)
  br label %86

80:                                               ; preds = %55
  %81 = load ptr, ptr %12, align 8
  %82 = load i32, ptr @hf_mp4ves_start_code_prefix, align 4
  %83 = load ptr, ptr %6, align 8
  %84 = load i32, ptr %10, align 4
  %85 = call ptr @proto_tree_add_bits_item(ptr noundef %81, i32 noundef %82, ptr noundef %83, i32 noundef %84, i32 noundef 24, i32 noundef 0)
  br label %86

86:                                               ; preds = %80, %75, %62
  br label %87

87:                                               ; preds = %86, %4
  %88 = load ptr, ptr %6, align 8
  %89 = call i32 @tvb_captured_length(ptr noundef %88)
  store i32 %89, ptr %5, align 4
  store i32 1, ptr %14, align 4
  br label %90

90:                                               ; preds = %87, %46, %31
  call void @llvm.lifetime.end.p0(i64 4, ptr %13) #6
  call void @llvm.lifetime.end.p0(i64 8, ptr %12) #6
  call void @llvm.lifetime.end.p0(i64 8, ptr %11) #6
  call void @llvm.lifetime.end.p0(i64 4, ptr %10) #6
  %91 = load i32, ptr %5, align 4
  ret i32 %91
}