; Function Attrs: null_pointer_is_valid sspstrong uwtable
define internal i32 @dissect_mp4ves(ptr noundef %0, ptr noundef %1, ptr noundef %2, ptr readnone captures(none) %3) #0 {
  %5 = getelementptr inbounds nuw i8, ptr %1, i64 8
  %6 = load ptr, ptr %5, align 8
  tail call void @col_set_str(ptr noundef %6, i32 noundef 35, ptr noundef nonnull @.str.97)
  %.not = icmp eq ptr %2, null
  br i1 %.not, label %33, label %7

7:                                                ; preds = %4
  %8 = load i32, ptr @proto_mp4ves, align 4
  %9 = tail call ptr @proto_tree_add_item(ptr noundef nonnull %2, i32 noundef %8, ptr noundef %0, i32 noundef 0, i32 noundef -1, i32 noundef 0)
  %10 = load i32, ptr @ett_mp4ves, align 4
  %11 = tail call ptr @proto_item_add_subtree(ptr noundef %9, i32 noundef %10)
  %12 = tail call i32 @tvb_reported_length(ptr noundef %0)
  %13 = icmp ult i32 %12, 4
  br i1 %13, label %14, label %17

14:                                               ; preds = %7
  %15 = load i32, ptr @hf_mp4ves_data, align 4
  %16 = tail call ptr @proto_tree_add_item(ptr noundef %11, i32 noundef %15, ptr noundef %0, i32 noundef 0, i32 noundef -1, i32 noundef 0)
  br label %33

17:                                               ; preds = %7
  %18 = tail call i32 @tvb_get_bits32(ptr noundef %0, i32 noundef 0, i32 noundef 24, i32 noundef 0)
  %.not35 = icmp eq i32 %18, 1
  br i1 %.not35, label %22, label %19

19:                                               ; preds = %17
  %20 = load i32, ptr @hf_mp4ves_data, align 4
  %21 = tail call ptr @proto_tree_add_item(ptr noundef %11, i32 noundef %20, ptr noundef %0, i32 noundef 0, i32 noundef -1, i32 noundef 0)
  br label %33

22:                                               ; preds = %17
  %23 = tail call zeroext i8 @tvb_get_bits8(ptr noundef %0, i32 noundef 24, i32 noundef 8)
  switch i8 %23, label %30 [
    i8 -74, label %24
    i8 -80, label %29
  ]

24:                                               ; preds = %22
  %25 = load i32, ptr @hf_mp4ves_start_code_prefix, align 4
  %26 = tail call ptr @proto_tree_add_bits_item(ptr noundef %11, i32 noundef %25, ptr noundef %0, i32 noundef 8, i32 noundef 24, i32 noundef 0)
  %27 = load i32, ptr @hf_mp4ves_vop_coding_type, align 4
  %28 = tail call ptr @proto_tree_add_bits_item(ptr noundef %11, i32 noundef %27, ptr noundef %0, i32 noundef 32, i32 noundef 2, i32 noundef 0)
  br label %33

29:                                               ; preds = %22
  tail call fastcc void @dissect_mp4ves_VisualObjectSequence(ptr noundef %0, ptr noundef %1, ptr noundef %11)
  br label %33

30:                                               ; preds = %22
  %31 = load i32, ptr @hf_mp4ves_start_code_prefix, align 4
  %32 = tail call ptr @proto_tree_add_bits_item(ptr noundef %11, i32 noundef %31, ptr noundef %0, i32 noundef 8, i32 noundef 24, i32 noundef 0)
  br label %33

33:                                               ; preds = %4, %30, %29, %24, %19, %14
  %34 = tail call i32 @tvb_captured_length(ptr noundef %0)
  ret i32 %34
}